(dp0
S'raining'
p1
I435
sS'hats'
p2
I781
sS'yellow'
p3
I429
sS'four'
p4
I1558
sS'woods'
p5
I1707
sS'sleep'
p6
I464
sS'asian'
p7
I2201
sS'hanging'
p8
I759
sS'hate'
p9
I1342
sS'muzzle'
p10
I361
sS'feeding'
p11
I346
sS'chinese'
p12
I1930
sS'snowing'
p13
I1111
sS'presents'
p14
I901
sS'bike'
p15
I146
sS'under'
p16
I117
sS'teaching'
p17
I1586
sS'rescue'
p18
I742
sS'blanket'
p19
I1030
sS'dell'
p20
I816
sS'jack'
p21
I1167
sS'uncertain'
p22
I2147
sS'fireplace'
p23
I1291
sS'tagging'
p24
I1521
sS'school'
p25
I1192
sS'motorcyclist'
p26
I1785
sS'yachting'
p27
I1949
sS'shoelace'
p28
I51
sS'solid'
p29
I1504
sS'clothes'
p30
I807
sS'parted'
p31
I1094
sS'bicycle'
p32
I91
sS'tired'
p33
I360
sS'railing'
p34
I541
sS'feathers'
p35
I33
sS'nail'
p36
I1082
sS'messy'
p37
I658
sS'likely'
p38
I517
sS'street'
p39
I331
sS'kidnap'
p40
I1476
sS'panda'
p41
I2105
sS'shining'
p42
I932
sS'blue'
p43
I83
sS'panama'
p44
I2049
sS'cooking'
p45
I2121
sS'fingers'
p46
I1651
sS'hazy'
p47
I1805
sS'lampshade'
p48
I2144
sS'lights'
p49
I1285
sS'above'
p50
I560
sS'blur'
p51
I941
sS'new'
p52
I839
sS'ever'
p53
I2012
sS'helmets'
p54
I1870
sS'whose'
p55
I785
sS'men'
p56
I391
sS'pontoon'
p57
I1039
sS'here'
p58
I237
sS'herd'
p59
I1480
sS'protection'
p60
I1260
sS'studio'
p61
I787
sS'nanny'
p62
I1902
sS'represented'
p63
I1642
sS'path'
p64
I433
sS'100'
p65
I1292
sS'celebration'
p66
I1165
sS'studs'
p67
I466
sS'kids'
p68
I318
sS'daughter'
p69
I1587
sS'luggage'
p70
I1517
sS'items'
p71
I861
sS'leaves'
p72
I370
sS'paris'
p73
I958
sS'jogging'
p74
I2011
sS'chilling'
p75
I2187
sS'smoke'
p76
I1657
sS'military'
p77
I390
sS'pendant'
p78
I1595
sS'golden'
p79
I607
sS'stray'
p80
I1904
sS'moreton'
p81
I1615
sS'julie'
p82
I196
sS'bro'
p83
I1563
sS'visible'
p84
I61
sS'heeler'
p85
I722
sS'jackets'
p86
I645
sS'punching'
p87
I1630
sS'total'
p88
I1571
sS'plow'
p89
I2216
sS'reflected'
p90
I765
sS'would'
p91
I264
sS'army'
p92
I1940
sS'sweater'
p93
I439
sS'played'
p94
I774
sS'music'
p95
I482
sS'calm'
p96
I919
sS'type'
p97
I100
sS'tell'
p98
I1639
sS'females'
p99
I1824
sS'successful'
p100
I2194
sS'hurt'
p101
I1601
sS'phone'
p102
I580
sS'warm'
p103
I803
sS'adult'
p104
I1022
sS'yard'
p105
I1404
sS'hole'
p106
I825
sS'hold'
p107
I256
sS'scribble'
p108
I240
sS'blocking'
p109
I1581
sS'word'
p110
I1304
sS'room'
p111
I205
sS'work'
p112
I1046
sS'gasoline'
p113
I2090
sS'roof'
p114
I315
sS'my'
p115
I978
sS'example'
p116
I1848
sS'cone'
p117
I637
sS'decorative'
p118
I1535
sS'india'
p119
I332
sS'foods'
p120
I1778
sS'caution'
p121
I918
sS'want'
p122
I127
sS'also'
p123
I2073
sS'dachshunds'
p124
I953
sS'feline'
p125
I1910
sS'thing'
p126
I1076
sS'travel'
p127
I796
sS'drying'
p128
I1093
sS'machine'
p129
I648
sS'how'
p130
I24
sS'hot'
p131
I14
sS'boats'
p132
I208
sS'gate'
p133
I852
sS'beach'
p134
I257
sS'pizza'
p135
I571
sS'gaming'
p136
I2001
sS'briefcase'
p137
I2020
sS'ladder'
p138
I1209
sS'after'
p139
I960
sS'lab'
p140
I444
sS'laptops'
p141
I1698
sS'jumping'
p142
I387
sS'arch'
p143
I255
sS'types'
p144
I1688
sS'fedora'
p145
I1158
sS'croissant'
p146
I1676
sS'exhibition'
p147
I2104
sS'harley'
p148
I1421
sS'green'
p149
I34
sS'enter'
p150
I698
sS'wind'
p151
I1066
sS'wine'
p152
I1598
sS'office'
p153
I1747
sS'dirtiest'
p154
I1410
sS'over'
p155
I5
sS'headgear'
p156
I1322
sS'oven'
p157
I1874
sS'keyboard'
p158
I2060
sS'before'
p159
I1513
sS'fir'
p160
I1270
sS'chihuahua'
p161
I493
sS'fit'
p162
I1763
sS'bringing'
p163
I1606
sS'backpack'
p164
I97
sS'bottled'
p165
I1528
sS'coffee'
p166
I1037
sS'tourist'
p167
I1628
sS'plaster'
p168
I1783
sS'safe'
p169
I795
sS'touring'
p170
I2209
sS'break'
p171
I2185
sS'band'
p172
I1714
sS'they'
p173
I108
sS'comprised'
p174
I2110
sS'silver'
p175
I139
sS'bricks'
p176
I1487
sS'bread'
p177
I1567
sS'shadows'
p178
I86
sS'meat'
p179
I1618
sS'reasonably'
p180
I1822
sS'rocks'
p181
I913
sS'wooden'
p182
I1780
sS'arrow'
p183
I1997
sS'each'
p184
I377
sS'side'
p185
I523
sS'bone'
p186
I1619
sS'mean'
p187
I1593
sS'logs'
p188
I1532
sS'garment'
p189
I1648
sS'sled'
p190
I1143
sS'group'
p191
I1922
sS'celebrating'
p192
I926
sS'magnets'
p193
I141
sS'navy'
p194
I525
sS'logo'
p195
I1346
sS'flock'
p196
I2005
sS'ring'
p197
I496
sS'trench'
p198
I1434
sS'driving'
p199
I72
sS'haired'
p200
I1860
sS'2303'
p201
I720
sS're'
p202
I426
sS'got'
p203
I977
sS'taos'
p204
I841
sS'turning'
p205
I949
sS'written'
p206
I1744
sS'stella'
p207
I1736
sS'free'
p208
I860
sS'knit'
p209
I2165
sS'blinders'
p210
I831
sS'suburb'
p211
I1740
sS'atv'
p212
I1392
sS'licked'
p213
I2143
sS'soda'
p214
I224
sS'007'
p215
I1483
sS'onto'
p216
I912
sS'cleaning'
p217
I1889
sS'already'
p218
I1263
sS'pots'
p219
I1838
sS'featured'
p220
I990
sS'guzzle'
p221
I2089
sS'another'
p222
I1259
sS'navigator'
p223
I301
sS'plastic'
p224
I231
sS'hood'
p225
I1647
sS'toy'
p226
I128
sS'hydrant'
p227
I1117
sS'service'
p228
I336
sS'potty'
p229
I1062
sS'top'
p230
I137
sS'girls'
p231
I766
sS'approximately'
p232
I1385
sS'boating'
p233
I1455
sS'twenties'
p234
I1245
sS'master'
p235
I629
sS'too'
p236
I13
sS'farming'
p237
I53
sS'dogs'
p238
I47
sS'urban'
p239
I92
sS'ceiling'
p240
I760
sS'tool'
p241
I1333
sS'convention'
p242
I1501
sS'took'
p243
I194
sS'wrapped'
p244
I1931
sS'western'
p245
I549
sS'brushed'
p246
I1818
sS'schnauzer'
p247
I89
sS'chef'
p248
I2085
sS'surrounding'
p249
I1544
sS'hike'
p250
I1988
sS'tree'
p251
I366
sS'second'
p252
I1401
sS'seated'
p253
I1737
sS'feeling'
p254
I1674
sS'bridge'
p255
I210
sS'donkey'
p256
I939
sS'fashion'
p257
I999
sS'sees'
p258
I1659
sS'boston'
p259
I1091
sS'modern'
p260
I52
sS'mind'
p261
I349
sS'talking'
p262
I579
sS'rat'
p263
I2178
sS'shrubs'
p264
I1730
sS'seen'
p265
I103
sS'seem'
p266
I997
sS'gear'
p267
I1610
sS'cesar'
p268
I1603
sS'person'
p269
I56
sS'bleachers'
p270
I1616
sS'snow'
p271
I511
sS'predominantly'
p272
I1649
sS'chest'
p273
I1578
sS'doors'
p274
I557
sS'swims'
p275
I461
sS'rider'
p276
I1826
sS'davidson'
p277
I1422
sS'blouse'
p278
I740
sS'zebras'
p279
I606
sS'object'
p280
I143
sS'mouth'
p281
I50
sS'letter'
p282
I319
sS'coin'
p283
I1358
sS'jean'
p284
I1246
sS'glow'
p285
I618
sS'bedding'
p286
I2182
sS'camp'
p287
I1706
sS'm'
p288
I321
sS'dog'
p289
I9
sS'tech'
p290
I1310
sS'pineapple'
p291
I1928
sS'briskly'
p292
I1036
sS'came'
p293
I897
sS'stool'
p294
I1667
sS'appreciates'
p295
I1923
sS'colors'
p296
I20
sS'chandelier'
p297
I1579
sS'sharks'
p298
I598
sS'busy'
p299
I478
sS'theme'
p300
I822
sS'rich'
p301
I833
sS'sporting'
p302
I1516
sS'wearing'
p303
I82
sS'do'
p304
I129
sS'tiles'
p305
I710
sS'sunglasses'
p306
I250
sS'colorful'
p307
I415
sS'conduct'
p308
I1897
sS'watch'
p309
I642
sS'dc'
p310
I2191
sS'leisure'
p311
I1250
sS'pocket'
p312
I979
sS'watermelon'
p313
I1265
sS'cushion'
p314
I1236
sS'wedding'
p315
I2131
sS'happiest'
p316
I1820
sS'dr'
p317
I2064
sS'bat'
p318
I1644
sS'covering'
p319
I475
sS'nicely'
p320
I1974
sS'terrain'
p321
I2045
sS'licking'
p322
I599
sS'patch'
p323
I1446
sS'bag'
p324
I308
sS'bad'
p325
I1748
sS'ears'
p326
I695
sS'tattoos'
p327
I1652
sS'zookeeper'
p328
I1074
sS'pads'
p329
I1979
sS'decided'
p330
I929
sS'holding'
p331
I57
sS'ledge'
p332
I1841
sS'subject'
p333
I751
sS'03'
p334
I1178
sS'lots'
p335
I801
sS'away'
p336
I712
sS'afloat'
p337
I672
sS'shirted'
p338
I1498
sS'shaved'
p339
I1399
sS'wetsuit'
p340
I928
sS'mug'
p341
I1054
sS'finger'
p342
I1084
sS'pets'
p343
I351
sS'contraband'
p344
I1183
sS'drawn'
p345
I2051
sS'herding'
p346
I635
sS'wears'
p347
I1089
sS'wn'
p348
I730
sS'cut'
p349
I1975
sS'wear'
p350
I641
sS'kitchen'
p351
I655
sS'cow'
p352
I1269
sS'country'
p353
I63
sS'against'
p354
I1414
sS'participating'
p355
I442
sS'players'
p356
I2028
sS'faces'
p357
I1552
sS'sheepdog'
p358
I207
sS'character'
p359
I1751
sS'height'
p360
I1227
sS'towels'
p361
I2197
sS'blonde'
p362
I830
sS'trust'
p363
I450
sS'bathroom'
p364
I2098
sS'studebaker'
p365
I754
sS'been'
p366
I601
sS'quickly'
p367
I1792
sS'beer'
p368
I1137
sS'much'
p369
I1299
sS'stadium'
p370
I2151
sS'flexible'
p371
I1755
sS'warmth'
p372
I1101
sS'containers'
p373
I1003
sS'location'
p374
I956
sS'website'
p375
I1916
sS'obese'
p376
I791
sS'life'
p377
I673
sS'deeper'
p378
I1880
sS'relaxing'
p379
I354
sS'attacked'
p380
I1139
sS'lift'
p381
I1980
sS'child'
p382
I293
sS'catch'
p383
I382
sS'east'
p384
I548
sS'tank'
p385
I694
sS'professionally'
p386
I2041
sS'air'
p387
I235
sS'near'
p388
I746
sS'stopping'
p389
I1274
sS'skirts'
p390
I1718
sS'tzu'
p391
I1078
sS'mexico'
p392
I840
sS'rings'
p393
I1991
sS'is'
p394
I1
sS'it'
p395
I12
sS'player'
p396
I1973
sS'anticipating'
p397
I1276
sS'in'
p398
I2
sS't'
p399
I358
sS'mouse'
p400
I1885
sS'id'
p401
I783
sS'if'
p402
I626
sS'grown'
p403
I1833
sS'memorial'
p404
I1115
sS'bottles'
p405
I2106
sS'drawers'
p406
I1378
sS'suggest'
p407
I1226
sS'make'
p408
I29
sS'beside'
p409
I940
sS'complex'
p410
I1341
sS'boater'
p411
I1947
sS'babies'
p412
I2061
sS'harming'
p413
I1523
sS'wheel'
p414
I1726
sS'misery'
p415
I1347
sS'rail'
p416
I2167
sS'rain'
p417
I738
sS'hand'
p418
I228
sS'photographers'
p419
I1728
sS'kid'
p420
I585
sS'vermont'
p421
I2168
sS'kept'
p422
I828
sS'condiments'
p423
I2175
sS'possessed'
p424
I1052
sS'1974'
p425
I2128
sS'ocean'
p426
I576
sS'bedspread'
p427
I1343
sS'mother'
p428
I1901
sS'hearts'
p429
I1934
sS'the'
p430
I3
sS'flops'
p431
I1071
sS'musical'
p432
I1208
sS'left'
p433
I120
sS'snowman'
p434
I1842
sS'just'
p435
I456
sS'appropriately'
p436
I1416
sS'photo'
p437
I107
sS'laptop'
p438
I652
sS'goggles'
p439
I1750
sS'farther'
p440
I1486
sS'human'
p441
I1034
sS'campbell'
p442
I197
sS'yes'
p443
I11
sS'portrayed'
p444
I558
sS'handshake'
p445
I1771
sS'collars'
p446
I876
sS'flooring'
p447
I1945
sS'yamaha'
p448
I1012
sS'photographer'
p449
I1448
sS'had'
p450
I1348
sS'hay'
p451
I1796
sS'obedient'
p452
I495
sS'board'
p453
I675
sS'has'
p454
I600
sS'hat'
p455
I371
sS'humanity'
p456
I1415
sS'21st'
p457
I1906
sS'casting'
p458
I752
sS'possible'
p459
I1271
sS'boxes'
p460
I1365
sS'boxer'
p461
I2180
sS'background'
p462
I306
sS'wanting'
p463
I1817
sS'cape'
p464
I1994
sS'shadow'
p465
I753
sS'cognitive'
p466
I2159
sS'shoulder'
p467
I1551
sS'55'
p468
I1289
sS'performing'
p469
I1770
sS'50'
p470
I1871
sS'pavement'
p471
I1130
sS'steps'
p472
I1893
sS'officer'
p473
I1492
sS'night'
p474
I260
sS'guests'
p475
I1843
sS'antique'
p476
I789
sS'butterfly'
p477
I1812
sS'right'
p478
I178
sS'petting'
p479
I187
sS'crowd'
p480
I388
sS'people'
p481
I98
sS'dead'
p482
I2033
sS'meters'
p483
I381
sS'shapes'
p484
I1690
sS'humor'
p485
I604
sS'for'
p486
I15
sS'bottom'
p487
I721
sS'purple'
p488
I333
sS'fox'
p489
I1853
sS'ice'
p490
I1004
sS'when'
p491
I312
sS'asking'
p492
I2123
sS'shakespeare'
p493
I1482
sS'skateboarder'
p494
I1459
sS'christmas'
p495
I115
sS'cord'
p496
I2062
sS'reflection'
p497
I1228
sS'post'
p498
I900
sS'dalmatian'
p499
I1170
sS'benches'
p500
I667
sS'cowboy'
p501
I1715
sS'newspapers'
p502
I651
sS'magazine'
p503
I878
sS'afternoon'
p504
I1095
sS'horizon'
p505
I1073
sS'hospital'
p506
I1802
sS'mantle'
p507
I1390
sS'material'
p508
I744
sS'carrot'
p509
I1031
sS'bath'
p510
I1152
sS'down'
p511
I330
sS'lies'
p512
I2009
sS'bats'
p513
I2150
sS'old'
p514
I867
sS'frightened'
p515
I621
sS'parade'
p516
I1451
sS'viewers'
p517
I1441
sS'flying'
p518
I665
sS'unfocused'
p519
I1631
sS'sunlight'
p520
I87
sS'class'
p521
I1273
sS'towing'
p522
I1081
sS'way'
p523
I556
sS'spring'
p524
I2179
sS'call'
p525
I1309
sS'was'
p526
I258
sS'war'
p527
I872
sS'happy'
p528
I467
sS'head'
p529
I173
sS'becoming'
p530
I1020
sS'converse'
p531
I769
sS'ford'
p532
I1759
sS'illuminating'
p533
I1447
sS'full'
p534
I1693
sS'prevents'
p535
I911
sS'inside'
p536
I230
sS'attached'
p537
I544
sS'mannequins'
p538
I1297
sS'sling'
p539
I441
sS'zodiac'
p540
I2196
sS'panels'
p541
I1918
sS'passenger'
p542
I297
sS'shih'
p543
I1077
sS'classic'
p544
I1465
sS'umpire'
p545
I1952
sS'covers'
p546
I701
sS'drive'
p547
I453
sS'soothe'
p548
I1883
sS'ship'
p549
I632
sS'shiner'
p550
I1791
sS'dying'
p551
I1293
sS'floor'
p552
I709
sS'handmade'
p553
I647
sS'grabbing'
p554
I1943
sS'tin'
p555
I1608
sS'interested'
p556
I432
sS'carpeting'
p557
I780
sS'digital'
p558
I1361
sS'tie'
p559
I1025
sS'nt'
p560
I731
sS'roll'
p561
I1879
sS'picture'
p562
I7
sS'garland'
p563
I768
sS'football'
p564
I1788
sS'sunroof'
p565
I1867
sS'trailers'
p566
I553
sS'smelling'
p567
I1855
sS'happening'
p568
I634
sS'glass'
p569
I750
sS'normally'
p570
I1212
sS'canines'
p571
I2161
sS'together'
p572
I449
sS'jacket'
p573
I674
sS'teeth'
p574
I167
sS'sniffer'
p575
I1048
sS'uninterested'
p576
I2084
sS'furry'
p577
I1821
sS'chain'
p578
I873
sS'skis'
p579
I154
sS'switches'
p580
I1839
sS'skate'
p581
I1258
sS'daytime'
p582
I555
sS'skiing'
p583
I152
sS'chair'
p584
I588
sS'rectangles'
p585
I1692
sS'milk'
p586
I233
sS'venice'
p587
I1305
sS'uneven'
p588
I909
sS'jogger'
p589
I1529
sS'flash'
p590
I619
sS'environment'
p591
I471
sS'0'
p592
I594
sS'bicycles'
p593
I697
sS'marks'
p594
I227
sS'brown'
p595
I75
sS'protective'
p596
I1321
sS'icing'
p597
I1993
sS'keeping'
p598
I2172
sS'tacos'
p599
I706
sS'gloomy'
p600
I982
sS'artwork'
p601
I559
sS'cook'
p602
I654
sS'cool'
p603
I804
sS'clouds'
p604
I686
sS'level'
p605
I1669
sS'did'
p606
I820
sS'posts'
p607
I1781
sS'gun'
p608
I58
sS'cloudy'
p609
I1754
sS'10199'
p610
I425
sS'leave'
p611
I1249
sS'item'
p612
I1666
sS'team'
p613
I798
sS'sidewalk'
p614
I84
sS'round'
p615
I1327
sS'says'
p616
I2111
sS'sign'
p617
I412
sS'draping'
p618
I1858
sS'shirts'
p619
I857
sS'run'
p620
I323
sS'drinks'
p621
I218
sS'appear'
p622
I125
sS'celebrated'
p623
I1559
sS'uniform'
p624
I320
sS'current'
p625
I526
sS'goes'
p626
I2214
sS'sundae'
p627
I2077
sS'falling'
p628
I1960
sS'1013'
p629
I1556
sS'hairy'
p630
I1075
sS'transportation'
p631
I1283
sS'camisole'
p632
I2183
sS'hairs'
p633
I2099
sS'rug'
p634
I756
sS'water'
p635
I317
sS'baseball'
p636
I850
sS'along'
p637
I584
sS'appears'
p638
I2016
sS'change'
p639
I1512
sS'box'
p640
I1006
sS'boy'
p641
I192
sS'flames'
p642
I1186
sS'healthy'
p643
I593
sS'commonly'
p644
I1389
sS'bow'
p645
I171
sS'bangs'
p646
I1400
sS'usually'
p647
I1461
sS'bob'
p648
I1807
sS'pillow'
p649
I1160
sS'bog'
p650
I1199
sS'love'
p651
I1337
sS'hiking'
p652
I1316
sS'kayak'
p653
I971
sS'fake'
p654
I498
sS'market'
p655
I533
sS'dents'
p656
I2036
sS'russell'
p657
I1168
sS'working'
p658
I1106
sS'angry'
p659
I1402
sS'france'
p660
I959
sS'live'
p661
I1584
sS'wood'
p662
I745
sS'beagles'
p663
I2115
sS'today'
p664
I931
sS'loving'
p665
I1021
sS'sharing'
p666
I1024
sS'organized'
p667
I1326
sS'downtown'
p668
I957
sS'fly'
p669
I1474
sS'car'
p670
I288
sS'cap'
p671
I1090
sS'cat'
p672
I884
sS'can'
p673
I101
sS'following'
p674
I628
sS'cab'
p675
I1153
sS'arrive'
p676
I1368
sS'breeds'
p677
I893
sS'dodge'
p678
I554
sS'crazy'
p679
I1318
sS'figure'
p680
I678
sS'tinted'
p681
I1395
sS'posing'
p682
I755
sS'allowed'
p683
I1275
sS'clothing'
p684
I1100
sS'wetsuits'
p685
I2021
sS'pink'
p686
I339
sS'winter'
p687
I1009
sS'sailboat'
p688
I1677
sS'suitcases'
p689
I1723
sS'dinner'
p690
I1769
sS'pine'
p691
I954
sS'1'
p692
I62
sS'skater'
p693
I1157
sS'elephant'
p694
I920
sS'tile'
p695
I2114
sS'dominance'
p696
I725
sS'product'
p697
I1634
sS'laundry'
p698
I2017
sS'141'
p699
I1500
sS'spot'
p700
I952
sS'accessory'
p701
I1198
sS'birthday'
p702
I927
sS'mad'
p703
I1381
sS'date'
p704
I843
sS'tablecloth'
p705
I572
sS'guys'
p706
I1933
sS'wagging'
p707
I1774
sS'man'
p708
I45
sS'surfing'
p709
I480
sS'natural'
p710
I1525
sS'neck'
p711
I485
sS'candles'
p712
I1665
sS'st'
p713
I417
sS'truck'
p714
I193
sS'african'
p715
I1220
sS'basket'
p716
I749
sS'tall'
p717
I649
sS'increase'
p718
I2157
sS'talk'
p719
I2219
sS'typical'
p720
I782
sS'shoes'
p721
I109
sS'freckles'
p722
I229
sS'haircut'
p723
I1560
sS'displayed'
p724
I1288
sS'097'
p725
I1126
sS'shake'
p726
I1957
sS'cold'
p727
I162
sS'still'
p728
I1011
sS'birds'
p729
I1214
sS'cola'
p730
I2053
sS'police'
p731
I1047
sS'monitor'
p732
I1154
sS'curly'
p733
I473
sS'comic'
p734
I1946
sS'yorkshire'
p735
I1753
sS'window'
p736
I160
sS'sail'
p737
I1678
sS'farmer'
p738
I532
sS'showered'
p739
I1279
sS'main'
p740
I1426
sS'texas'
p741
I2067
sS'apron'
p742
I1645
sS'lonely'
p743
I951
sS'3'
p744
I112
sS'profession'
p745
I176
sS'underneath'
p746
I396
sS'interview'
p747
I1717
sS'touching'
p748
I777
sS'tails'
p749
I474
sS'1950'
p750
I936
sS'not'
p751
I130
sS'now'
p752
I1241
sS'wagon'
p753
I59
sS'name'
p754
I808
sS'arrows'
p755
I1128
sS'rock'
p756
I1655
sS'photoshoot'
p757
I1971
sS'elephants'
p758
I328
sS'goose'
p759
I427
sS'catching'
p760
I236
sS'year'
p761
I1016
sS'girl'
p762
I149
sS'morning'
p763
I2134
sS'sunrise'
p764
I1764
sS'wheelers'
p765
I2039
sS'living'
p766
I206
sS'shown'
p767
I209
sS'opened'
p768
I1470
sS'looking'
p769
I121
sS'seriously'
p770
I1832
sS'receiving'
p771
I275
sS'eagle'
p772
I1977
sS'earlier'
p773
I1985
sS'cars'
p774
I379
sS'cart'
p775
I536
sS'flyer'
p776
I2107
sS'california'
p777
I1306
sS'headband'
p778
I2055
sS'care'
p779
I1746
sS'training'
p780
I274
sS'headphones'
p781
I643
sS'motion'
p782
I71
sS'turn'
p783
I1211
sS'place'
p784
I385
sS'footwear'
p785
I1162
sS'swing'
p786
I1884
sS'think'
p787
I1028
sS'first'
p788
I610
sS'emotion'
p789
I1673
sS'tennis'
p790
I383
sS'coming'
p791
I772
sS'one'
p792
I55
sS'fast'
p793
I1543
sS'carry'
p794
I529
sS'message'
p795
I1224
sS'open'
p796
I271
sS'size'
p797
I1197
sS'sheep'
p798
I374
sS'city'
p799
I624
sS'little'
p800
I148
sS'pebbly'
p801
I1950
sS'lap'
p802
I487
sS'bite'
p803
I359
sS'breed'
p804
I443
sS'tusks'
p805
I922
sS'anyone'
p806
I476
sS'2'
p807
I28
sS'stuffed'
p808
I950
sS'typing'
p809
I1109
sS'white'
p810
I77
sS'hue'
p811
I964
sS'eyes'
p812
I168
sS'that'
p813
I212
sS'floppy'
p814
I1566
sS'season'
p815
I827
sS'shawl'
p816
I1716
sS'flowers'
p817
I937
sS'than'
p818
I1430
sS'11'
p819
I1217
sS'10'
p820
I948
sS'television'
p821
I894
sS'12'
p822
I1146
sS'15'
p823
I660
sS'sailing'
p824
I1087
sS'16'
p825
I1506
sS'19'
p826
I846
sS'require'
p827
I800
sS'resemble'
p828
I2079
sS'coats'
p829
I1881
sS'future'
p830
I1729
sS'were'
p831
I1218
sS'cards'
p832
I1413
sS'tractor'
p833
I1107
sS'and'
p834
I76
sS'gathering'
p835
I2113
sS'greyhound'
p836
I883
sS'sad'
p837
I838
sS'akita'
p838
I1013
sS'say'
p839
I221
sS'pastry'
p840
I1583
sS'allen'
p841
I1314
sS'any'
p842
I638
sS'sat'
p843
I1742
sS'equipment'
p844
I2210
sS'take'
p845
I676
sS'performance'
p846
I962
sS'tigers'
p847
I2212
sS'channel'
p848
I1681
sS'surf'
p849
I1588
sS'200'
p850
I1301
sS'normal'
p851
I340
sS'printed'
p852
I278
sS'sheets'
p853
I1990
sS'pair'
p854
I2023
sS'knee'
p855
I824
sS'upland'
p856
I2109
sS'america'
p857
I488
sS'pedigree'
p858
I1380
sS'lawn'
p859
I1623
sS'cloth'
p860
I1477
sS'considered'
p861
I1604
sS'napkin'
p862
I1992
sS'hungry'
p863
I119
sS'sunset'
p864
I1765
sS'professional'
p865
I78
sS'shop'
p866
I1303
sS'walking'
p867
I111
sS'shot'
p868
I1278
sS'cherry'
p869
I2119
sS'show'
p870
I1216
sS'german'
p871
I454
sS'contemporary'
p872
I832
sS'trod'
p873
I1251
sS'bright'
p874
I445
sS'bedside'
p875
I1890
sS'shoe'
p876
I304
sS'corner'
p877
I1373
sS'aggressive'
p878
I1237
sS'ground'
p879
I215
sS'slow'
p880
I2206
sS'title'
p881
I1602
sS'behind'
p882
I46
sS'only'
p883
I2162
sS'going'
p884
I329
sS'black'
p885
I135
sS'hockey'
p886
I1397
sS'blinds'
p887
I1187
sS'wool'
p888
I1687
sS'get'
p889
I402
sS'attacking'
p890
I1731
sS'begging'
p891
I491
sS'wheelie'
p892
I344
sS'neckerchief'
p893
I818
sS'leather'
p894
I945
sS'surfboards'
p895
I1733
sS'brio'
p896
I2125
sS'tent'
p897
I1719
sS'where'
p898
I8
sS'picnic'
p899
I2074
sS'espn'
p900
I1683
sS'seas'
p901
I2129
sS'dollhouse'
p902
I2145
sS'seat'
p903
I298
sS'asleep'
p904
I348
sS'parking'
p905
I241
sS'calendar'
p906
I1164
sS'sport'
p907
I428
sS'surfaces'
p908
I1837
sS'label'
p909
I1989
sS'outside'
p910
I386
sS'between'
p911
I282
sS'reading'
p912
I877
sS'across'
p913
I430
sS'jobs'
p914
I1411
sS'august'
p915
I2116
sS'parent'
p916
I1352
sS'screen'
p917
I1210
sS'laced'
p918
I1534
sS'supermarket'
p919
I1049
sS'guitar'
p920
I285
sS'come'
p921
I679
sS'tug'
p922
I871
sS'mans'
p923
I762
sS'22'
p924
I1914
sS'many'
p925
I25
sS'region'
p926
I2188
sS's'
p927
I32
sS'mane'
p928
I1001
sS'wheels'
p929
I60
sS'expression'
p930
I1553
sS'comes'
p931
I1660
sS'among'
p932
I1872
sS'color'
p933
I37
sS'pot'
p934
I136
sS'robotics'
p935
I786
sS'jeans'
p936
I609
sS'heeling'
p937
I696
sS'pole'
p938
I1364
sS'learning'
p939
I1044
sS'polo'
p940
I1205
sS'boat'
p941
I66
sS'nose'
p942
I311
sS'unusual'
p943
I1689
sS'teddy'
p944
I1966
sS'stretch'
p945
I1984
sS'vacation'
p946
I605
sS'tropical'
p947
I1809
sS'judging'
p948
I2163
sS'featuring'
p949
I1801
sS'mary'
p950
I561
sS'wants'
p951
I1986
sS'direction'
p952
I546
sS'shopping'
p953
I303
sS'formed'
p954
I687
sS'tiger'
p955
I1010
sS'photos'
p956
I2032
sS'rooftops'
p957
I1611
sS'skiers'
p958
I2213
sS'those'
p959
I362
sS'sound'
p960
I1355
sS'these'
p961
I201
sS'humans'
p962
I921
sS'trick'
p963
I343
sS'cast'
p964
I991
sS'coca'
p965
I2052
sS'newspaper'
p966
I1014
sS'slippers'
p967
I1163
sS'penthouse'
p968
I1643
sS'vest'
p969
I743
sS'canoe'
p970
I1700
sS'ellsbury'
p971
I989
sS'strait'
p972
I1704
sS'purse'
p973
I307
sS'telephone'
p974
I238
sS'sleeping'
p975
I269
sS'middle'
p976
I407
sS'good'
p977
I448
sS'helmet'
p978
I447
sS'different'
p979
I352
sS'participant'
p980
I1554
sS'paw'
p981
I1229
sS'bowl'
p982
I1136
sS'tour'
p983
I955
sS'lava'
p984
I1018
sS'bows'
p985
I2181
sS'pad'
p986
I1886
sS'struggling'
p987
I1776
sS'dated'
p988
I1969
sS'wires'
p989
I1369
sS'closest'
p990
I792
sS'driver'
p991
I451
sS'driven'
p992
I2140
sS'running'
p993
I458
sS'fruit'
p994
I1366
sS'advertisement'
p995
I1140
sS'changing'
p996
I1680
sS'grooming'
p997
I764
sS'no'
p998
I36
sS'without'
p999
I1959
sS'bottle'
p1000
I232
sS'trains'
p1001
I410
sS'very'
p1002
I419
sS'taxi'
p1003
I1118
sS'summer'
p1004
I582
sS'pakistan'
p1005
I2221
sS'being'
p1006
I397
sS'money'
p1007
I1135
sS'kill'
p1008
I974
sS'polish'
p1009
I1083
sS'blow'
p1010
I1092
sS'thinking'
p1011
I2097
sS'beagle'
p1012
I1438
sS'instrument'
p1013
I483
sS'setting'
p1014
I95
sS'4'
p1015
I460
sS'hind'
p1016
I2044
sS'swim'
p1017
I663
sS'around'
p1018
I484
sS'read'
p1019
I650
sS'fridge'
p1020
I138
sS'grid'
p1021
I1108
sS'using'
p1022
I815
sS'lady'
p1023
I305
sS'furniture'
p1024
I1797
sS'partaking'
p1025
I2218
sS'clam'
p1026
I1086
sS'towel'
p1027
I1514
sS'patrick'
p1028
I265
sS'nissan'
p1029
I1472
sS'towed'
p1030
I513
sS'facing'
p1031
I668
sS'laughing'
p1032
I747
sS'served'
p1033
I1620
sS'tower'
p1034
I1696
sS'seating'
p1035
I1670
sS'doll'
p1036
I933
sS'competition'
p1037
I633
sS'lobster'
p1038
I2056
sS'images'
p1039
I421
sS'matching'
p1040
I1311
sS'xing'
p1041
I414
sS'wristband'
p1042
I1008
sS'shirtless'
p1043
I69
sS'longboard'
p1044
I904
sS'moon'
p1045
I335
sS'sledding'
p1046
I1142
sS'doggy'
p1047
I1420
sS'knife'
p1048
I924
sS'measuring'
p1049
I733
sS'business'
p1050
I157
sS'nails'
p1051
I1951
sS'olives'
p1052
I2122
sS'broken'
p1053
I716
sS'throw'
p1054
I1063
sS'on'
p1055
I10
sS'stone'
p1056
I1709
sS'kickflip'
p1057
I1147
sS'jeep'
p1058
I1445
sS'of'
p1059
I17
sS'meal'
p1060
I984
sS'wolf'
p1061
I296
sS'chow'
p1062
I1605
sS'mixed'
p1063
I1223
sS'or'
p1064
I44
sS'road'
p1065
I851
sS'op'
p1066
I1372
sS'ladies'
p1067
I1697
sS'image'
p1068
I270
sS'harness'
p1069
I494
sS'homeless'
p1070
I280
sS'strip'
p1071
I2048
sS'your'
p1072
I1339
sS'her'
p1073
I150
sS'area'
p1074
I158
sS'there'
p1075
I42
sS'cats'
p1076
I1196
sS'stars'
p1077
I819
sS'hem'
p1078
I908
sS'adidas'
p1079
I1460
sS'enough'
p1080
I1043
sS'shamelessly'
p1081
I1773
sS'buggy'
p1082
I1561
sS'pitcher'
p1083
I1134
sS'bookstore'
p1084
I1481
sS'bowls'
p1085
I1662
sS'walkway'
p1086
I1887
sS'trying'
p1087
I688
sS'with'
p1088
I144
sS'corduroy'
p1089
I1195
sS'buying'
p1090
I1635
sS'longer'
p1091
I602
sS'pull'
p1092
I1330
sS'bucket'
p1093
I1799
sS'rags'
p1094
I2132
sS'snowshoes'
p1095
I1123
sS'suitcase'
p1096
I512
sS'flats'
p1097
I887
sS'grass'
p1098
I437
sS'torso'
p1099
I2019
sS'rust'
p1100
I1127
sS'darker'
p1101
I1444
sS'toilet'
p1102
I1302
sS'ac'
p1103
I705
sS'ad'
p1104
I842
sS'certain'
p1105
I1432
sS'describe'
p1106
I1396
sS'deer'
p1107
I2003
sS'shoulders'
p1108
I1497
sS'deep'
p1109
I1458
sS'an'
p1110
I105
sS'as'
p1111
I300
sS'at'
p1112
I122
sS'politics'
p1113
I1202
sS'skateboarders'
p1114
I1080
sS'cream'
p1115
I1005
sS'again'
p1116
I2211
sS'collie'
p1117
I567
sS'heather'
p1118
I1614
sS'drivers'
p1119
I510
sS'field'
p1120
I99
sS'implied'
p1121
I1069
sS'5'
p1122
I292
sS'you'
p1123
I165
sS'puppy'
p1124
I1194
sS'poor'
p1125
I1424
sS'passerby'
p1126
I1356
sS'pillows'
p1127
I1932
sS'shelter'
p1128
I1998
sS'symbol'
p1129
I1541
sS'time'
p1130
I219
sS'cordless'
p1131
I1468
sS'waving'
p1132
I1489
sS'poodle'
p1133
I573
sS'chris'
p1134
I1320
sS'pool'
p1135
I190
sS'building'
p1136
I254
sS'ridden'
p1137
I1213
sS'remote'
p1138
I486
sS'wifi'
p1139
I1646
sS'mask'
p1140
I1800
sS'cpe'
p1141
I1125
sS'dyed'
p1142
I1000
sS'stroller'
p1143
I182
sS'god'
p1144
I1892
sS'husky'
p1145
I19
sS'original'
p1146
I106
sS'represent'
p1147
I67
sS'all'
p1148
I703
sS'skeleton'
p1149
I1999
sS'pointing'
p1150
I1846
sS'caused'
p1151
I1599
sS'suburban'
p1152
I93
sS'ladders'
p1153
I1808
sS'dish'
p1154
I570
sS'fixtures'
p1155
I1981
sS'disk'
p1156
I868
sS'children'
p1157
I516
sS'carpet'
p1158
I1749
sS'hunting'
p1159
I892
sS'tv'
p1160
I849
sS'to'
p1161
I126
sS'tail'
p1162
I499
sS'program'
p1163
I1760
sS'chewing'
p1164
I1350
sS'safety'
p1165
I1609
sS'enjoying'
p1166
I73
sS'case'
p1167
I286
sS'woman'
p1168
I43
sS'returned'
p1169
I1637
sS'sitting'
p1170
I191
sS'far'
p1171
I375
sS'fat'
p1172
I2004
sS'freebee'
p1173
I1942
sS'fan'
p1174
I761
sS'fall'
p1175
I245
sS'laying'
p1176
I40
sS'large'
p1177
I708
sS'dinosaur'
p1178
I294
sS'sand'
p1179
I1159
sS'small'
p1180
I1060
sS'neighborhood'
p1181
I834
sS'fence'
p1182
I431
sS'streets'
p1183
I322
sS'reins'
p1184
I1814
sS'past'
p1185
I1387
sS'design'
p1186
I1161
sS'perspective'
p1187
I1449
sS'ribbon'
p1188
I1613
sS'creatures'
p1189
I700
sS'what'
p1190
I0
sS'clock'
p1191
I220
sS'sun'
p1192
I477
sS'ticks'
p1193
I2093
sS'crust'
p1194
I1329
sS'suv'
p1195
I1120
sS'windowed'
p1196
I2184
sS'racing'
p1197
I882
sS'contrast'
p1198
I1850
sS'womb'
p1199
I898
sS'edited'
p1200
I1367
sS'toes'
p1201
I1059
sS'tags'
p1202
I1745
sS'leaping'
p1203
I915
sS'surfer'
p1204
I577
sS'strong'
p1205
I1495
sS'occupant'
p1206
I183
sS'arena'
p1207
I2006
sS'search'
p1208
I1898
sS'colored'
p1209
I520
sS'ahead'
p1210
I1927
sS'siamese'
p1211
I2013
sS'storefront'
p1212
I1284
sS'soldier'
p1213
I528
sS'airport'
p1214
I1181
sS'pick'
p1215
I27
sS'sticking'
p1216
I1058
sS'family'
p1217
I699
sS'buses'
p1218
I1119
sS'africa'
p1219
I1222
sS'screens'
p1220
I1156
sS'indoors'
p1221
I1699
sS'trained'
p1222
I943
sS'toys'
p1223
I1537
sS'dachshund'
p1224
I188
sS'1900'
p1225
I1970
sS'eye'
p1226
I519
sS'donuts'
p1227
I1944
sS'alcoholic'
p1228
I1900
sS'texting'
p1229
I1242
sS'two'
p1230
I181
sS'6'
p1231
I222
sS'taken'
p1232
I259
sS'raft'
p1233
I2027
sS'more'
p1234
I1257
sS'horses'
p1235
I563
sS'door'
p1236
I272
sS'nimbus'
p1237
I685
sS'engaged'
p1238
I1919
sS'company'
p1239
I1353
sS'pairs'
p1240
I608
sS'flag'
p1241
I65
sS'stick'
p1242
I1496
sS'broke'
p1243
I1798
sS'known'
p1244
I881
sS'mounted'
p1245
I1743
sS'town'
p1246
I1576
sS'grill'
p1247
I1734
sS'none'
p1248
I404
sS'sleeveless'
p1249
I1191
sS'male'
p1250
I251
sS'compare'
p1251
I1849
sS'share'
p1252
I1507
sS'states'
p1253
I535
sS'salty'
p1254
I1592
sS'numbers'
p1255
I423
sS'sense'
p1256
I603
sS'cows'
p1257
I104
sS'airplane'
p1258
I1277
sS'dress'
p1259
I907
sS'species'
p1260
I353
sS'court'
p1261
I1149
sS'goal'
p1262
I1819
sS'comfort'
p1263
I1668
sS'glowing'
p1264
I1466
sS'freshly'
p1265
I1188
sS'creature'
p1266
I538
sS'plant'
p1267
I1175
sS'sandwich'
p1268
I1148
sS'plane'
p1269
I522
sS'waves'
p1270
I562
sS'backyard'
p1271
I2086
sS'a'
p1272
I41
sS'short'
p1273
I506
sS'crowded'
p1274
I1360
sS'coat'
p1275
I279
sS'dragon'
p1276
I394
sS'shade'
p1277
I880
sS'playing'
p1278
I202
sS'rottweiler'
p1279
I1255
sS'help'
p1280
I1835
sS'pant'
p1281
I373
sS'kitten'
p1282
I226
sS'closeness'
p1283
I1924
sS'held'
p1284
I622
sS'paper'
p1285
I1720
sS'through'
p1286
I324
sS'same'
p1287
I367
sS'signs'
p1288
I1830
sS'smiling'
p1289
I1319
sS'its'
p1290
I172
sS'24'
p1291
I1033
sS'25'
p1292
I142
sS'style'
p1293
I551
sS'27'
p1294
I1961
sS'20'
p1295
I223
sS'carpeted'
p1296
I1379
sS'actually'
p1297
I2204
sS'upside'
p1298
I2025
sS'speaker'
p1299
I1467
sS'soccer'
p1300
I799
sS'might'
p1301
I1042
sS'wouldn'
p1302
I1336
sS'someone'
p1303
I239
sS'somebody'
p1304
I1955
sS'food'
p1305
I114
sS'cupcake'
p1306
I393
sS'peeing'
p1307
I1061
sS'walls'
p1308
I369
sS'starbucks'
p1309
I1419
sS'huskies'
p1310
I1393
sS'foot'
p1311
I653
sS'bigger'
p1312
I723
sS'pregnant'
p1313
I2198
sS'always'
p1314
I309
sS'porta'
p1315
I2029
sS'malamute'
p1316
I1490
sS'floors'
p1317
I2149
sS'slicked'
p1318
I2195
sS'found'
p1319
I1542
sS'heavy'
p1320
I691
sS'everyone'
p1321
I916
sS'upstairs'
p1322
I2000
sS'house'
p1323
I812
sS'idea'
p1324
I998
sS'operation'
p1325
I54
sS'backpacks'
p1326
I1705
sS'event'
p1327
I79
sS'really'
p1328
I452
sS'bikers'
p1329
I1189
sS'acting'
p1330
I299
sS'health'
p1331
I1518
sS'hill'
p1332
I1869
sS'7'
p1333
I1079
sS'foreground'
p1334
I914
sS'bald'
p1335
I1786
sS'dirt'
p1336
I810
sS'pug'
p1337
I399
sS'pleasant'
p1338
I910
sS'basketball'
p1339
I1457
sS'put'
p1340
I1622
sS'teach'
p1341
I1439
sS'cattle'
p1342
I2192
sS'guy'
p1343
I530
sS'thrown'
p1344
I1996
sS'dishwasher'
p1345
I1332
sS'computers'
p1346
I1909
sS'american'
p1347
I1221
sS'neglected'
p1348
I2076
sS'solidly'
p1349
I2170
sS'feed'
p1350
I1664
sS'statue'
p1351
I211
sS'feel'
p1352
I981
sS'perching'
p1353
I1629
sS'number'
p1354
I719
sS'feet'
p1355
I153
sS'done'
p1356
I1398
sS'kobe'
p1357
I986
sS'cups'
p1358
I1038
sS'horse'
p1359
I531
sS'temperature'
p1360
I1915
sS'leading'
p1361
I1510
sS'obedience'
p1362
I1866
sS'hangs'
p1363
I1650
sS'paint'
p1364
I368
sS'leash'
p1365
I342
sS'station'
p1366
I284
sS'storm'
p1367
I2095
sS'banana'
p1368
I1929
sS'store'
p1369
I216
sS'overexposed'
p1370
I1912
sS'selling'
p1371
I2205
sS'relationship'
p1372
I1939
sS'pump'
p1373
I2059
sS'hotel'
p1374
I1201
sS'park'
p1375
I682
sS'part'
p1376
I365
sS'crop'
p1377
I1450
sS'stairs'
p1378
I364
sS'center'
p1379
I1335
sS'king'
p1380
I1562
sS'grocery'
p1381
I1184
sS'legs'
p1382
I492
sS'suntop'
p1383
I1530
sS'shoestrings'
p1384
I770
sS'recording'
p1385
I2058
sS'ducks'
p1386
I947
sS'supposed'
p1387
I627
sS'outdoors'
p1388
I1762
sS'dane'
p1389
I291
sS'toward'
p1390
I773
sS'uniforms'
p1391
I1312
sS'curtains'
p1392
I1363
sS'alongside'
p1393
I1954
sS'juice'
p1394
I1155
sS'graffiti'
p1395
I243
sS'cleaned'
p1396
I1169
sS'rugs'
p1397
I405
sS'backseat'
p1398
I1794
sS'sell'
p1399
I217
sS'mountain'
p1400
I1096
sS'built'
p1401
I2171
sS'odd'
p1402
I2186
sS'cave'
p1403
I1825
sS'camouflage'
p1404
I891
sS'couch'
p1405
I875
sS'lit'
p1406
I1244
sS'majority'
p1407
I1732
sS'breeze'
p1408
I2138
sS'sandwiches'
p1409
I644
sS'irritated'
p1410
I1713
sS'play'
p1411
I869
sS'towards'
p1412
I1462
sS'pitbull'
p1413
I1793
sS'nighttime'
p1414
I503
sS'cigarette'
p1415
I1243
sS'bridle'
p1416
I854
sS'refrigerator'
p1417
I886
sS'stands'
p1418
I1215
sS'apparatus'
p1419
I2215
sS'sturdy'
p1420
I2199
sS'windows'
p1421
I1403
sS'clear'
p1422
I855
sS'cover'
p1423
I779
sS'kl'
p1424
I614
sS'reflections'
p1425
I690
sS'clean'
p1426
I657
sS'weigh'
p1427
I1300
sS'microsoft'
p1428
I788
sS'lying'
p1429
I993
sS'signaling'
p1430
I2141
sS'stunned'
p1431
I1177
sS'fins'
p1432
I2217
sS'hugging'
p1433
I1065
sS'fine'
p1434
I1982
sS'barking'
p1435
I1671
sS'access'
p1436
I2202
sS'scooter'
p1437
I757
sS'8'
p1438
I1475
sS'circle'
p1439
I836
sS'shepherd'
p1440
I455
sS'his'
p1441
I248
sS'dominant'
p1442
I1204
sS'dandelion'
p1443
I1627
sS'sunny'
p1444
I469
sS'kind'
p1445
I16
sS'trees'
p1446
I680
sS'dry'
p1447
I2146
sS'b'
p1448
I1972
sS'batter'
p1449
I1857
sS'preparing'
p1450
I1272
sS'during'
p1451
I934
sS'beards'
p1452
I1473
sS'him'
p1453
I1331
sS'chimney'
p1454
I1658
sS'catcher'
p1455
I1964
sS'sleeve'
p1456
I1150
sS'paddling'
p1457
I1041
sS'intrude'
p1458
I2133
sS'gloves'
p1459
I837
sS'common'
p1460
I967
sS'activity'
p1461
I930
sS'x'
p1462
I2081
sS'river'
p1463
I1656
sS'wrote'
p1464
I1252
sS'approaching'
p1465
I1540
sS'set'
p1466
I1766
sS'signify'
p1467
I1538
sS'dump'
p1468
I1873
sS'throwing'
p1469
I327
sS'see'
p1470
I166
sS'bare'
p1471
I540
sS'swayze'
p1472
I266
sS'sea'
p1473
I1550
sS'close'
p1474
I829
sS'arm'
p1475
I440
sS'analog'
p1476
I1362
sS'barn'
p1477
I2169
sS'pictures'
p1478
I140
sS'currently'
p1479
I1262
sS'please'
p1480
I1834
sS'fans'
p1481
I856
sS'won'
p1482
I357
sS'probably'
p1483
I1240
sS'crosswalk'
p1484
I2166
sS'donate'
p1485
I1357
sS'conditions'
p1486
I1958
sS'gathered'
p1487
I1772
sS'pictured'
p1488
I88
sS'recently'
p1489
I1903
sS'sold'
p1490
I2008
sS'outfit'
p1491
I151
sS'york'
p1492
I2018
sS'both'
p1493
I163
sS'last'
p1494
I1064
sS'license'
p1495
I612
sS'restaurant'
p1496
I728
sS'collection'
p1497
I1888
sS'sheltie'
p1498
I2120
sS'lanyard'
p1499
I1423
sS'headed'
p1500
I1564
sS'battery'
p1501
I1965
sS'others'
p1502
I1418
sS'awnings'
p1503
I1862
sS'barefooted'
p1504
I2096
sS'goats'
p1505
I1803
sS'expensive'
p1506
I1847
sS'belt'
p1507
I1114
sS'naps'
p1508
I2088
sS'screened'
p1509
I1827
sS'suburbs'
p1510
I1323
sS'brick'
p1511
I590
sS'empty'
p1512
I1663
sS'resting'
p1513
I378
sS'passengers'
p1514
I1694
sS'fire'
p1515
I521
sS'wheeler'
p1516
I2038
sS'gas'
p1517
I283
sS'awake'
p1518
I1098
sS'rocking'
p1519
I1580
sS'plants'
p1520
I2075
sS'handling'
p1521
I735
sS'fur'
p1522
I539
sS'look'
p1523
I169
sS'frozen'
p1524
I502
sS'straight'
p1525
I1116
sS'rope'
p1526
I938
sS'bikini'
p1527
I1145
sS'behavior'
p1528
I341
sS'leaning'
p1529
I501
sS'fun'
p1530
I497
sS'kissing'
p1531
I1908
sS'guide'
p1532
I276
sS'cages'
p1533
I2203
sS'pack'
p1534
I2127
sS'real'
p1535
I213
sS'30'
p1536
I2024
sS'century'
p1537
I1907
sS'embroidered'
p1538
I1203
sS'decoration'
p1539
I1582
sS'skype'
p1540
I1761
sS'ready'
p1541
I514
sS'ethnicity'
p1542
I1219
sS'chase'
p1543
I1388
sS'funny'
p1544
I739
sS'italy'
p1545
I68
sS'shirt'
p1546
I81
sS'lengths'
p1547
I1926
sS'belong'
p1548
I972
sS'fountain'
p1549
I1741
sS'9'
p1550
I702
sS'ray'
p1551
I2082
sS'higher'
p1552
I865
sS'development'
p1553
I2158
sS'used'
p1554
I411
sS'overweight'
p1555
I70
sS'cement'
p1556
I1782
sS'flown'
p1557
I1920
sS'moving'
p1558
I515
sS'stripe'
p1559
I597
sS'sandals'
p1560
I1370
sS'stack'
p1561
I1913
sS'recent'
p1562
I1233
sS'lower'
p1563
I1469
sS'task'
p1564
I1239
sS'concrete'
p1565
I715
sS'flags'
p1566
I468
sS'inspirational'
p1567
I1132
sS'y'
p1568
I1027
sS'traffic'
p1569
I692
sS'hastings'
p1570
I2042
sS'things'
p1571
I1384
sS'shape'
p1572
I835
sS'world'
p1573
I1409
sS'crested'
p1574
I2014
sS'tables'
p1575
I1878
sS'intersection'
p1576
I325
sS'helping'
p1577
I1767
sS'cup'
p1578
I942
sS'exercising'
p1579
I969
sS'grapefruit'
p1580
I1452
sS'parents'
p1581
I2026
sS'kites'
p1582
I564
sS'excited'
p1583
I963
sS'march'
p1584
I845
sS'luminaria'
p1585
I2071
sS'big'
p1586
I147
sS'couple'
p1587
I793
sS'game'
p1588
I200
sS'necessary'
p1589
I2139
sS'like'
p1590
I392
sS'uphill'
p1591
I1144
sS'vests'
p1592
I1454
sS'stylist'
p1593
I1685
sS'marquee'
p1594
I1624
sS'signal'
p1595
I1440
sS'disks'
p1596
I1711
sS'glove'
p1597
I1953
sS'heart'
p1598
I1103
sS'individuals'
p1599
I1105
sS'popular'
p1600
I2174
sS'cones'
p1601
I1141
sS'bracelet'
p1602
I1852
sS'some'
p1603
I965
sS'back'
p1604
I295
sS'added'
p1605
I2164
sS'palm'
p1606
I1359
sS'mirror'
p1607
I123
sS'curious'
p1608
I1173
sS'pet'
p1609
I726
sS'decision'
p1610
I1442
sS'sneakers'
p1611
I363
sS'ped'
p1612
I413
sS'pee'
p1613
I615
sS'either'
p1614
I438
sS'mutts'
p1615
I1427
sS'be'
p1616
I102
sS'parrot'
p1617
I2069
sS'eating'
p1618
I490
sS'fed'
p1619
I398
sS'step'
p1620
I866
sS'santa'
p1621
I823
sS'by'
p1622
I345
sS'sunbathing'
p1623
I2156
sS'anything'
p1624
I2124
sS'most'
p1625
I1625
sS'surfers'
p1626
I1261
sS'charm'
p1627
I1594
sS'daisies'
p1628
I1672
sS'seeing'
p1629
I518
sS'colorado'
p1630
I670
sS'garbage'
p1631
I1002
sS'into'
p1632
I1050
sS'framed'
p1633
I2189
sS'appropriate'
p1634
I457
sS'primarily'
p1635
I862
sS'downhill'
p1636
I2063
sS'smells'
p1637
I1029
sS'behaving'
p1638
I48
sS'scrunch'
p1639
I310
sS'sock'
p1640
I1856
sS'long'
p1641
I504
sS'handler'
p1642
I1515
sS'rowe'
p1643
I1407
sS'summertime'
p1644
I578
sS'suit'
p1645
I1232
sS'forward'
p1646
I1626
sS'mountains'
p1647
I639
sS'himself'
p1648
I1503
sS'relaxed'
p1649
I821
sS'boys'
p1650
I314
sS'link'
p1651
I874
sS'adults'
p1652
I797
sS'line'
p1653
I595
sS'posted'
p1654
I844
sS'up'
p1655
I30
sS'us'
p1656
I524
sS'dresses'
p1657
I2010
sS'called'
p1658
I145
sS'labrador'
p1659
I1112
sS'metal'
p1660
I543
sS'doesn'
p1661
I1435
sS'curb'
p1662
I758
sS'rainbow'
p1663
I23
sS'rainy'
p1664
I2087
sS'nap'
p1665
I1590
sS'scraps'
p1666
I1328
sS'camo'
p1667
I1133
sS'nice'
p1668
I666
sS'brushing'
p1669
I347
sS'smiles'
p1670
I313
sS'spectators'
p1671
I1617
sS'energetic'
p1672
I420
sS'rabies'
p1673
I1654
sS'crouching'
p1674
I1577
sS'prepared'
p1675
I1428
sS'centerpiece'
p1676
I767
sS'insect'
p1677
I1811
sS'wakeboarding'
p1678
I2177
sS'posters'
p1679
I1238
sS'desert'
p1680
I472
sS'ago'
p1681
I1708
sS'land'
p1682
I1325
sS'vehicles'
p1683
I992
sS'walked'
p1684
I1429
sS'admiring'
p1685
I1684
sS'train'
p1686
I1286
sS'2006'
p1687
I1963
sS'worn'
p1688
I1296
sS'2004'
p1689
I2068
sS'fresh'
p1690
I1488
sS'2008'
p1691
I847
sS'2009'
p1692
I1180
sS'having'
p1693
I350
sS'once'
p1694
I1895
sS'katz'
p1695
I1254
sS'windy'
p1696
I681
sS'groceries'
p1697
I1815
sS'gang'
p1698
I1829
sS'go'
p1699
I592
sS'gold'
p1700
I132
sS'concerned'
p1701
I1040
sS'young'
p1702
I996
sS'suits'
p1703
I1295
sS'frisbees'
p1704
I1701
sS'cluttered'
p1705
I1057
sS'fences'
p1706
I281
sS'friendly'
p1707
I545
sS'automotive'
p1708
I1315
sS'panting'
p1709
I1056
sS'telling'
p1710
I1431
sS'drinking'
p1711
I1104
sS'bryant'
p1712
I987
sS'entire'
p1713
I778
sS'harbor'
p1714
I1433
sS'gender'
p1715
I902
sS'this'
p1716
I18
sS'race'
p1717
I1453
sS'smaller'
p1718
I1548
sS'pepper'
p1719
I2065
sS'boots'
p1720
I509
sS'jump'
p1721
I689
sS'muffs'
p1722
I1531
sS'traveling'
p1723
I1724
sS'pajamas'
p1724
I2108
sS'drapes'
p1725
I2066
sS'poke'
p1726
I1738
sS'paintings'
p1727
I1463
sS'giving'
p1728
I859
sS'paddle'
p1729
I2148
sS'cell'
p1730
I707
sS'waiting'
p1731
I113
sS'hairbrushes'
p1732
I1546
sS'poles'
p1733
I1437
sS'attire'
p1734
I1225
sS'bird'
p1735
I31
sS'body'
p1736
I575
sS'shoreline'
p1737
I1823
sS'leg'
p1738
I185
sS'kangaroo'
p1739
I389
sS'pushing'
p1740
I903
sS'objects'
p1741
I899
sS'let'
p1742
I463
sS'making'
p1743
I617
sS'cyclist'
p1744
I806
sS'great'
p1745
I290
sS'31'
p1746
I1179
sS'larger'
p1747
I1967
sS'shades'
p1748
I2112
sS'36'
p1749
I1679
sS'leaving'
p1750
I1193
sS'645'
p1751
I973
sS'climb'
p1752
I2094
sS'shaded'
p1753
I1877
sS'makes'
p1754
I1735
sS'composed'
p1755
I1464
sS'busking'
p1756
I481
sS'apple'
p1757
I983
sS'danger'
p1758
I1067
sS'wii'
p1759
I203
sS'motor'
p1760
I1088
sS'duck'
p1761
I1976
sS'oval'
p1762
I2022
sS'standing'
p1763
I436
sS'use'
p1764
I1308
sS'from'
p1765
I713
sS'tar'
p1766
I1739
sS'readable'
p1767
I1555
sS'next'
p1768
I184
sS'depicted'
p1769
I1231
sS'camera'
p1770
I198
sS'vehicle'
p1771
I261
sS'sort'
p1772
I583
sS'porch'
p1773
I1828
sS'pfm'
p1774
I1758
sS'trail'
p1775
I1722
sS'carrying'
p1776
I96
sS'baby'
p1777
I704
sS'shoelaces'
p1778
I1710
sS'women'
p1779
I826
sS'animals'
p1780
I26
sS'salad'
p1781
I1935
sS'tunnel'
p1782
I589
sS'ride'
p1783
I74
sS'mastiff'
p1784
I771
sS'donut'
p1785
I409
sS'napkins'
p1786
I569
sS'crossed'
p1787
I1307
sS'thin'
p1788
I372
sS'closing'
p1789
I1983
sS'fetch'
p1790
I1045
sS'control'
p1791
I1712
sS'patrol'
p1792
I1612
sS'thirsty'
p1793
I289
sS'plate'
p1794
I613
sS'lock'
p1795
I1596
sS'slim'
p1796
I1956
sS'halloween'
p1797
I1524
sS'purposes'
p1798
I2118
sS'high'
p1799
I714
sS'tag'
p1800
I870
sS'pulling'
p1801
I630
sS'something'
p1802
I985
sS'blvd'
p1803
I2153
sS'hit'
p1804
I1408
sS'tan'
p1805
I1377
sS'paws'
p1806
I1122
sS'united'
p1807
I534
sS'syndrome'
p1808
I1425
sS'sit'
p1809
I1502
sS'holds'
p1810
I1813
sS'located'
p1811
I2220
sS'lamp'
p1812
I1097
sS'forest'
p1813
I1894
sS'animal'
p1814
I155
sS'bandana'
p1815
I1174
sS'toddler'
p1816
I1456
sS'buildings'
p1817
I1102
sS'farm'
p1818
I1324
sS'stop'
p1819
I2155
sS'wallpaper'
p1820
I1863
sS'thunderstorm'
p1821
I1072
sS'tied'
p1822
I1317
sS'bothered'
p1823
I1633
sS'wrist'
p1824
I1499
sS'ties'
p1825
I1374
sS'terrier'
p1826
I946
sS'cuddling'
p1827
I923
sS'frowning'
p1828
I1640
sS'twins'
p1829
I1575
sS'chasing'
p1830
I636
sS'light'
p1831
I161
sS'counter'
p1832
I656
sS'necklace'
p1833
I1547
sS'bathing'
p1834
I737
sS'stamped'
p1835
I2070
sS'move'
p1836
I1882
sS'meter'
p1837
I242
sS'motorcycle'
p1838
I263
sS'mutt'
p1839
I1520
sS'cruise'
p1840
I631
sS'toolbox'
p1841
I2035
sS'badges'
p1842
I784
sS'broom'
p1843
I994
sS'noses'
p1844
I2034
sS'potties'
p1845
I2030
sS'youngster'
p1846
I1019
sS'orange'
p1847
I566
sS'hobby'
p1848
I1938
sS'holiday'
p1849
I507
sS'2011'
p1850
I1017
sS'seatbelt'
p1851
I2142
sS'practice'
p1852
I677
sS'oranges'
p1853
I1925
sS'cutting'
p1854
I2200
sS'hands'
p1855
I586
sS'front'
p1856
I334
sS'cage'
p1857
I1235
sS'day'
p1858
I479
sS'54e'
p1859
I424
sS'accompanies'
p1860
I2176
sS'sniffing'
p1861
I1182
sS'ditmars'
p1862
I2152
sS'mode'
p1863
I1282
sS'crossing'
p1864
I1936
sS'beneath'
p1865
I2057
sS'glasses'
p1866
I568
sS'tents'
p1867
I565
sS'doing'
p1868
I234
sS'globe'
p1869
I1478
sS'related'
p1870
I179
sS'books'
p1871
I1099
sS'measure'
p1872
I1171
sS'special'
p1873
I273
sS'out'
p1874
I403
sS'hedges'
p1875
I776
sS'lecture'
p1876
I1806
sS'red'
p1877
I39
sS'umbrella'
p1878
I22
sS'utensil'
p1879
I1775
sS'completely'
p1880
I1557
sS'cowbell'
p1881
I1268
sS'corgi'
p1882
I2091
sS'retriever'
p1883
I133
sS'scary'
p1884
I170
sS'timex'
p1885
I1138
sS'prepare'
p1886
I1768
sS'spill'
p1887
I1565
sS'could'
p1888
I889
sS'skateboard'
p1889
I500
sS'keep'
p1890
I671
sS'produce'
p1891
I1686
sS'wading'
p1892
I1804
sS'biting'
p1893
I408
sS'outrunning'
p1894
I1539
sS'scarf'
p1895
I416
sS'scene'
p1896
I623
sS'skills'
p1897
I2160
sS'groomed'
p1898
I1585
sS'owner'
p1899
I164
sS'art'
p1900
I2100
sS'quality'
p1901
I1344
sS'umbrellas'
p1902
I134
sS'monkey'
p1903
I406
sS'chased'
p1904
I1110
sS'system'
p1905
I2002
sS'their'
p1906
I858
sS'decorations'
p1907
I508
sS'ankle'
p1908
I1851
sS'paved'
p1909
I434
sS'agility'
p1910
I1865
sS'lot'
p1911
I459
sS'shorts'
p1912
I646
sS'bulldog'
p1913
I790
sS'shelf'
p1914
I2193
sS'reflecting'
p1915
I287
sS'herself'
p1916
I1859
sS'waist'
p1917
I1172
sS'photograph'
p1918
I195
sS'floatation'
p1919
I2136
sS'stewie'
p1920
I1752
sS'bed'
p1921
I6
sS'ferry'
p1922
I1549
sS'are'
p1923
I21
sS'hairstyle'
p1924
I1756
sS'straps'
p1925
I853
sS'clip'
p1926
I1313
sS'carrots'
p1927
I1166
sS'comfortable'
p1928
I1485
sS'tide'
p1929
I1085
sS'have'
p1930
I131
sS'portrait'
p1931
I1831
sS'need'
p1932
I1511
sS'curved'
p1933
I1505
sS'border'
p1934
I975
sS'sidecar'
p1935
I729
sS'afraid'
p1936
I268
sS'sprinkles'
p1937
I693
sS'dishes'
p1938
I1280
sS'cherries'
p1939
I2078
sS'relatives'
p1940
I2080
sS'which'
p1941
I204
sS'so'
p1942
I356
sS'visor'
p1943
I1068
sS'coke'
p1944
I225
sS'who'
p1945
I159
sS'camper'
p1946
I1777
sS'connected'
p1947
I748
sS'device'
p1948
I2137
sS'why'
p1949
I85
sS'bred'
p1950
I2207
sS'upset'
p1951
I1443
sS'thanksgiving'
p1952
I1621
sS'face'
p1953
I249
sS'looked'
p1954
I174
sS'occasion'
p1955
I124
sS'painting'
p1956
I1055
sS'08'
p1957
I1962
sS'09'
p1958
I1405
sS'kite'
p1959
I574
sS'balding'
p1960
I1035
sS'nutella'
p1961
I1987
sS'stove'
p1962
I2117
sS'bring'
p1963
I664
sS'biker'
p1964
I1190
sS'bikes'
p1965
I775
sS'parked'
p1966
I380
sS'rough'
p1967
I2130
sS'pleased'
p1968
I110
sS'decade'
p1969
I935
sS'based'
p1970
I1290
sS'tire'
p1971
I2047
sS'pickup'
p1972
I1471
sS'should'
p1973
I625
sS'bernard'
p1974
I418
sS'tape'
p1975
I917
sS'riding'
p1976
I90
sS'skateboards'
p1977
I1600
sS'partially'
p1978
I1569
sS'meant'
p1979
I1026
sS'handle'
p1980
I1816
sS'watching'
p1981
I848
sS'photography'
p1982
I2072
sS'stripes'
p1983
I1911
sS'bear'
p1984
I620
sS'made'
p1985
I542
sS'125'
p1986
I1131
sS'words'
p1987
I277
sS'striped'
p1988
I906
sS'years'
p1989
I2046
sS'chips'
p1990
I1795
sS'gray'
p1991
I736
sS'trucks'
p1992
I552
sS'hills'
p1993
I640
sS'stuff'
p1994
I2103
sS'she'
p1995
I186
sS'view'
p1996
I1661
sS'appliance'
p1997
I1854
sS'frame'
p1998
I4
sS'orphan'
p1999
I596
sS'we'
p2000
I1836
sS'canine'
p2001
I763
sS'yorkie'
p2002
I1383
sS'computer'
p2003
I814
sS'skateboarding'
p2004
I1394
sS'racket'
p2005
I1597
sS'closer'
p2006
I895
sS'wire'
p2007
I1779
sS'interacting'
p2008
I376
sS'attempting'
p2009
I1479
sS'pattern'
p2010
I817
sS'tend'
p2011
I1248
sS'state'
p2012
I669
sS'closed'
p2013
I302
sS'leashes'
p2014
I1527
sS'pants'
p2015
I400
sS'opening'
p2016
I253
sS'mopping'
p2017
I1591
sS'huts'
p2018
I1484
sS'job'
p2019
I741
sS'yawning'
p2020
I863
sS'jon'
p2021
I1253
sS'staring'
p2022
I547
sS'piece'
p2023
I1508
sS'bloodhound'
p2024
I1653
sS'sniff'
p2025
I1573
sS'freely'
p2026
I2102
sS'taking'
p2027
I384
sS'ramp'
p2028
I2040
sS'passing'
p2029
I727
sS'safely'
p2030
I2208
sS'jersey'
p2031
I1789
sS'co'
p2032
I1371
sS'wall'
p2033
I591
sS'denim'
p2034
I1891
sS'walk'
p2035
I1338
sS'table'
p2036
I395
sS'pouring'
p2037
I316
sS'swimmer'
p2038
I2135
sS'muddy'
p2039
I1876
sS'slowly'
p2040
I811
sS'treat'
p2041
I1509
sS'curtain'
p2042
I1917
sS'mike'
p2043
I1406
sS'circus'
p2044
I961
sS'painted'
p2045
I1129
sS'pie'
p2046
I1607
sS'27pm'
p2047
I581
sS'spaniel'
p2048
I968
sS'controller'
p2049
I1536
sS'covered'
p2050
I1941
sS'folding'
p2051
I1412
sS'present'
p2052
I659
sS'plaid'
p2053
I995
sS'slept'
p2054
I2015
sS'will'
p2055
I462
sS'owns'
p2056
I1007
sS'wild'
p2057
I1281
sS'toothbrushes'
p2058
I1298
sS'surface'
p2059
I1491
sS'rips'
p2060
I1840
sS'vw'
p2061
I1230
sS'superheroes'
p2062
I1995
sS'tattoo'
p2063
I1266
sS'vintage'
p2064
I1727
sS'cross'
p2065
I890
sS'fido'
p2066
I809
sS'largest'
p2067
I683
sS'inch'
p2068
I2050
sS'party'
p2069
I1124
sS'tomatoes'
p2070
I885
sS'ball'
p2071
I116
sS'dasani'
p2072
I1354
sS'drink'
p2073
I616
sS'upon'
p2074
I2154
sS'sunburn'
p2075
I446
sS'collar'
p2076
I38
sS'warming'
p2077
I1533
sS'off'
p2078
I246
sS'surfboard'
p2079
I684
sS'i'
p2080
I976
sS'weapon'
p2081
I527
sS'overcast'
p2082
I470
sS'well'
p2083
I49
sS'fighting'
p2084
I1334
sS'vet'
p2085
I2083
sS'english'
p2086
I550
sS'awning'
p2087
I1207
sS'position'
p2088
I1526
sS'latest'
p2089
I1968
sS'bending'
p2090
I1522
sS'fixated'
p2091
I1845
sS'bananas'
p2092
I537
sS'less'
p2093
I2054
sS'domestic'
p2094
I1703
sS'clocks'
p2095
I1695
sS'fishing'
p2096
I1294
sS'seats'
p2097
I1691
sS'dakota'
p2098
I1725
sS'happiness'
p2099
I1675
sS'penchant'
p2100
I1023
sS'tight'
p2101
I1200
sS'residential'
p2102
I156
sS'jeff'
p2103
I1948
sS'sky'
p2104
I401
sS'lake'
p2105
I662
sS'bench'
p2106
I118
sS'other'
p2107
I180
sS'clipped'
p2108
I1113
sS'wet'
p2109
I980
sS'ski'
p2110
I1436
sS'match'
p2111
I1376
sS'sick'
p2112
I35
sS'checking'
p2113
I2092
sS'dryer'
p2114
I1868
sS'know'
p2115
I1185
sS'facial'
p2116
I1784
sS'desk'
p2117
I1589
sS'2nd'
p2118
I326
sS'trash'
p2119
I1375
sS'showing'
p2120
I1682
sS'feral'
p2121
I925
sS'lost'
p2122
I1638
sS'chairs'
p2123
I805
sS'sofa'
p2124
I944
sS'controllers'
p2125
I199
sS'ponytail'
p2126
I1978
sS'surgery'
p2127
I1519
sS'soft'
p2128
I1351
sS'italian'
p2129
I1206
sS'because'
p2130
I1382
sS'retractable'
p2131
I1176
sS'scared'
p2132
I175
sS'5154'
p2133
I732
sS'alive'
p2134
I1574
sS'hair'
p2135
I505
sS'home'
p2136
I1053
sS'avoid'
p2137
I661
sS'does'
p2138
I64
sS'earrings'
p2139
I465
sS'fanny'
p2140
I2126
sS'blurry'
p2141
I1234
sS'panes'
p2142
I1570
sS'ripped'
p2143
I1494
sS'blowing'
p2144
I2037
sS'medieval'
p2145
I1861
sS'pomeranian'
p2146
I1787
sS'pasta'
p2147
I1641
sS'hiding'
p2148
I1905
sS'about'
p2149
I244
sS'lifestyle'
p2150
I1247
sS'carried'
p2151
I1493
sS'saddle'
p2152
I1264
sS'column'
p2153
I1015
sS'rodeo'
p2154
I2007
sS'beige'
p2155
I1875
sS'puppies'
p2156
I734
sS'tongue'
p2157
I864
sS'swimming'
p2158
I189
sS'own'
p2159
I1864
sS'letters'
p2160
I611
sS'washington'
p2161
I2190
sS'socks'
p2162
I717
sS'getting'
p2163
I1151
sS'guard'
p2164
I355
sS'weather'
p2165
I802
sS'brush'
p2166
I1545
sS'female'
p2167
I252
sS'owners'
p2168
I1256
sS'van'
p2169
I489
sS'housing'
p2170
I1340
sS'spots'
p2171
I1032
sS'inner'
p2172
I337
sS'groomer'
p2173
I177
sS'beverage'
p2174
I1899
sS'beard'
p2175
I1810
sS'north'
p2176
I794
sS'bus'
p2177
I422
sS'brand'
p2178
I813
sS'bun'
p2179
I1757
sS'ear'
p2180
I338
sS'eat'
p2181
I711
sS'bud'
p2182
I2031
sS'he'
p2183
I262
sS'boarding'
p2184
I1287
sS'leashed'
p2185
I1345
sS'noon'
p2186
I1386
sS'flip'
p2187
I1070
sS'roam'
p2188
I2101
sS'carriage'
p2189
I718
sS'stories'
p2190
I1121
sS'leech'
p2191
I1937
sS'cake'
p2192
I905
sS'threw'
p2193
I1267
sS'display'
p2194
I888
sS'skating'
p2195
I1790
sS'affectionate'
p2196
I1921
sS'pic'
p2197
I1051
sS'topless'
p2198
I879
sS'shooting'
p2199
I1568
sS'domesticated'
p2200
I1896
sS'compared'
p2201
I1417
sS'contest'
p2202
I1702
sS'46'
p2203
I988
sS'dressed'
p2204
I896
sS'45'
p2205
I1572
sS'claiming'
p2206
I724
sS'40'
p2207
I1844
sS'book'
p2208
I587
sS'branch'
p2209
I214
sS'trophies'
p2210
I966
sS'dresser'
p2211
I970
sS'frisbee'
p2212
I80
sS'star'
p2213
I1391
sS'stay'
p2214
I2173
sS'rural'
p2215
I94
sS'friends'
p2216
I1721
sS'cliff'
p2217
I247
sS'ghost'
p2218
I267
sS'gelato'
p2219
I1636
sS'portion'
p2220
I2043
sS'lives'
p2221
I1349
sS'buoy'
p2222
I1632
s.